; Function Attrs: mustprogress uwtable
define dso_local noundef zeroext i1 @_ZNK4Luau8TypePath4PatheqERKS1_(ptr noundef nonnull readonly align 8 captures(none) dereferenceable(24) %0, ptr noundef nonnull readonly align 8 captures(none) dereferenceable(24) %1) local_unnamed_addr #8 align 2 {
  %3 = getelementptr inbounds nuw i8, ptr %0, i64 8
  %4 = load ptr, ptr %3, align 8, !tbaa !10
  %5 = load ptr, ptr %0, align 8, !tbaa !4
  %6 = ptrtoint ptr %4 to i64
  %7 = ptrtoint ptr %5 to i64
  %8 = sub i64 %6, %7
  %9 = getelementptr inbounds nuw i8, ptr %1, i64 8
  %10 = load ptr, ptr %9, align 8, !tbaa !10
  %11 = load ptr, ptr %1, align 8, !tbaa !4
  %12 = ptrtoint ptr %10 to i64
  %13 = ptrtoint ptr %11 to i64
  %14 = sub i64 %12, %13
  %15 = icmp eq i64 %8, %14
  br i1 %15, label %16, label %_ZSteqIN4Luau7VariantIJNS0_8TypePath8PropertyENS2_5IndexENS2_9TypeFieldENS2_9PackFieldENS2_9ReductionEEEESaIS8_EEbRKSt6vectorIT_T0_ESF_.exit

16:                                               ; preds = %2
  %.not9.i.i.i.i.i = icmp eq ptr %5, %4
  br i1 %.not9.i.i.i.i.i, label %_ZSteqIN4Luau7VariantIJNS0_8TypePath8PropertyENS2_5IndexENS2_9TypeFieldENS2_9PackFieldENS2_9ReductionEEEESaIS8_EEbRKSt6vectorIT_T0_ESF_.exit, label %.lr.ph.i.i.i.i.i

.lr.ph.i.i.i.i.i:                                 ; preds = %16, %26
  %.011.i.i.i.i.i = phi ptr [ %28, %26 ], [ %11, %16 ]
  %.0810.i.i.i.i.i = phi ptr [ %27, %26 ], [ %5, %16 ]
  %17 = load i32, ptr %.0810.i.i.i.i.i, align 8, !tbaa !11
  %18 = load i32, ptr %.011.i.i.i.i.i, align 8, !tbaa !11
  %19 = icmp eq i32 %17, %18
  br i1 %19, label %_ZNK4Luau7VariantIJNS_8TypePath8PropertyENS1_5IndexENS1_9TypeFieldENS1_9PackFieldENS1_9ReductionEEEeqERKS7_.exit.i.i.i.i.i, label %_ZSteqIN4Luau7VariantIJNS0_8TypePath8PropertyENS2_5IndexENS2_9TypeFieldENS2_9PackFieldENS2_9ReductionEEEESaIS8_EEbRKSt6vectorIT_T0_ESF_.exit

_ZNK4Luau7VariantIJNS_8TypePath8PropertyENS1_5IndexENS1_9TypeFieldENS1_9PackFieldENS1_9ReductionEEEeqERKS7_.exit.i.i.i.i.i: ; preds = %.lr.ph.i.i.i.i.i
  %20 = sext i32 %17 to i64
  %21 = getelementptr inbounds [5 x ptr], ptr @_ZZNK4Luau7VariantIJNS_8TypePath8PropertyENS1_5IndexENS1_9TypeFieldENS1_9PackFieldENS1_9ReductionEEEeqERKS7_E5table, i64 0, i64 %20
  %22 = load ptr, ptr %21, align 8, !tbaa !14
  %23 = getelementptr inbounds nuw i8, ptr %.0810.i.i.i.i.i, i64 8
  %24 = getelementptr inbounds nuw i8, ptr %.011.i.i.i.i.i, i64 8
  %25 = tail call noundef zeroext i1 %22(ptr noundef nonnull %23, ptr noundef nonnull %24)
  br i1 %25, label %26, label %_ZSteqIN4Luau7VariantIJNS0_8TypePath8PropertyENS2_5IndexENS2_9TypeFieldENS2_9PackFieldENS2_9ReductionEEEESaIS8_EEbRKSt6vectorIT_T0_ESF_.exit

26:                                               ; preds = %_ZNK4Luau7VariantIJNS_8TypePath8PropertyENS1_5IndexENS1_9TypeFieldENS1_9PackFieldENS1_9ReductionEEEeqERKS7_.exit.i.i.i.i.i
  %27 = getelementptr inbounds nuw i8, ptr %.0810.i.i.i.i.i, i64 48
  %28 = getelementptr inbounds nuw i8, ptr %.011.i.i.i.i.i, i64 48
  %.not.i.i.i.i.i = icmp eq ptr %27, %4
  br i1 %.not.i.i.i.i.i, label %_ZSteqIN4Luau7VariantIJNS0_8TypePath8PropertyENS2_5IndexENS2_9TypeFieldENS2_9PackFieldENS2_9ReductionEEEESaIS8_EEbRKSt6vectorIT_T0_ESF_.exit, label %.lr.ph.i.i.i.i.i, !llvm.loop !41

_ZSteqIN4Luau7VariantIJNS0_8TypePath8PropertyENS2_5IndexENS2_9TypeFieldENS2_9PackFieldENS2_9ReductionEEEESaIS8_EEbRKSt6vectorIT_T0_ESF_.exit: ; preds = %.lr.ph.i.i.i.i.i, %_ZNK4Luau7VariantIJNS_8TypePath8PropertyENS1_5IndexENS1_9TypeFieldENS1_9PackFieldENS1_9ReductionEEEeqERKS7_.exit.i.i.i.i.i, %26, %2, %16
  %29 = phi i1 [ false, %2 ], [ true, %16 ], [ false, %_ZNK4Luau7VariantIJNS_8TypePath8PropertyENS1_5IndexENS1_9TypeFieldENS1_9PackFieldENS1_9ReductionEEEeqERKS7_.exit.i.i.i.i.i ], [ true, %26 ], [ false, %.lr.ph.i.i.i.i.i ]
  ret i1 %29
}